; Function Attrs: mustprogress nounwind uwtable
define internal noundef zeroext i1 @_ZN4llvm20MCAsmParserExtension15HandleDirectiveIN12_GLOBAL__N_113WasmAsmParserETnMT_FbNS_9StringRefENS_5SMLocEEXadL_ZNS3_19ParseDirectiveIdentES5_S6_EEEEbPS0_S5_S6_(ptr nocapture noundef readonly %0, ptr nocapture readnone %1, i64 %2, ptr nocapture readnone %3) #0 align 2 {
  %5 = alloca %"class.llvm::Twine", align 8
  %6 = alloca %"class.llvm::Twine", align 8
  call void @llvm.lifetime.start.p0(i64 40, ptr nonnull %5)
  call void @llvm.lifetime.start.p0(i64 40, ptr nonnull %6)
  %7 = getelementptr inbounds nuw i8, ptr %0, i64 8
  %8 = load ptr, ptr %7, align 8
  %9 = load ptr, ptr %8, align 8
  %10 = getelementptr inbounds i8, ptr %9, i64 40
  %11 = load ptr, ptr %10, align 8
  %12 = tail call noundef nonnull align 8 dereferenceable(144) ptr %11(ptr noundef nonnull align 8 dereferenceable(34) %8) #13
  %13 = getelementptr inbounds nuw i8, ptr %12, i64 8
  %14 = load ptr, ptr %13, align 8
  %15 = load i32, ptr %14, align 8
  %.not.i = icmp eq i32 %15, 3
  br i1 %.not.i, label %21, label %16

16:                                               ; preds = %4
  %17 = getelementptr inbounds nuw i8, ptr %5, i64 32
  %18 = getelementptr inbounds nuw i8, ptr %5, i64 33
  store i8 1, ptr %18, align 1
  store ptr @.str.42, ptr %5, align 8
  store i8 3, ptr %17, align 8
  %19 = load ptr, ptr %7, align 8
  %20 = call noundef zeroext i1 @_ZN4llvm11MCAsmParser8TokErrorERKNS_5TwineENS_7SMRangeE(ptr noundef nonnull align 8 dereferenceable(34) %19, ptr noundef nonnull align 8 dereferenceable(34) %5, ptr null, ptr null) #13
  br label %_ZN12_GLOBAL__N_113WasmAsmParser19ParseDirectiveIdentEN4llvm9StringRefENS1_5SMLocE.exit

21:                                               ; preds = %4
  %22 = load ptr, ptr %7, align 8
  %23 = tail call noundef nonnull align 8 dereferenceable(40) ptr @_ZNK4llvm11MCAsmParser6getTokEv(ptr noundef nonnull align 8 dereferenceable(34) %22) #13
  %24 = load i32, ptr %23, align 8
  %25 = icmp eq i32 %24, 2
  %26 = getelementptr inbounds nuw i8, ptr %23, i64 8
  br i1 %25, label %27, label %28

27:                                               ; preds = %21
  %.sroa.0.0.copyload.i.i.i = load ptr, ptr %26, align 8
  %.sroa.2.0..sroa_idx.i.i.i = getelementptr inbounds i8, ptr %23, i64 16
  %.sroa.2.0.copyload.i.i.i = load i64, ptr %.sroa.2.0..sroa_idx.i.i.i, align 8
  br label %_ZNK4llvm8AsmToken13getIdentifierEv.exit.i

28:                                               ; preds = %21
  %29 = getelementptr inbounds i8, ptr %23, i64 16
  %30 = load i64, ptr %29, align 8
  %31 = add i64 %30, -1
  %32 = icmp ne i64 %30, 0
  %33 = zext i1 %32 to i64
  %34 = icmp eq i64 %30, 0
  %..i.i.val.i.i.i.i = tail call i64 @llvm.umax.i64(i64 %31, i64 %33)
  %35 = select i1 %34, i64 0, i64 %..i.i.val.i.i.i.i
  %36 = load ptr, ptr %26, align 8
  %37 = getelementptr inbounds i8, ptr %36, i64 %33
  %38 = sub i64 %35, %33
  br label %_ZNK4llvm8AsmToken13getIdentifierEv.exit.i

_ZNK4llvm8AsmToken13getIdentifierEv.exit.i:       ; preds = %28, %27
  %.sroa.0.0.copyload.i.pn.i.i = phi ptr [ %.sroa.0.0.copyload.i.i.i, %27 ], [ %37, %28 ]
  %.sroa.2.0.copyload.i.pn.i.i = phi i64 [ %.sroa.2.0.copyload.i.i.i, %27 ], [ %38, %28 ]
  %39 = load ptr, ptr %7, align 8
  %40 = load ptr, ptr %39, align 8
  %41 = getelementptr inbounds i8, ptr %40, i64 184
  %42 = load ptr, ptr %41, align 8
  %43 = tail call noundef nonnull align 8 dereferenceable(40) ptr %42(ptr noundef nonnull align 8 dereferenceable(34) %39) #13
  %44 = load ptr, ptr %7, align 8
  %45 = load ptr, ptr %44, align 8
  %46 = getelementptr inbounds i8, ptr %45, i64 40
  %47 = load ptr, ptr %46, align 8
  %48 = tail call noundef nonnull align 8 dereferenceable(144) ptr %47(ptr noundef nonnull align 8 dereferenceable(34) %44) #13
  %49 = getelementptr inbounds nuw i8, ptr %48, i64 8
  %50 = load ptr, ptr %49, align 8
  %51 = load i32, ptr %50, align 8
  %.not1.i = icmp eq i32 %51, 9
  br i1 %.not1.i, label %57, label %52

52:                                               ; preds = %_ZNK4llvm8AsmToken13getIdentifierEv.exit.i
  %53 = getelementptr inbounds nuw i8, ptr %6, i64 32
  %54 = getelementptr inbounds nuw i8, ptr %6, i64 33
  store i8 1, ptr %54, align 1
  store ptr @.str.42, ptr %6, align 8
  store i8 3, ptr %53, align 8
  %55 = load ptr, ptr %7, align 8
  %56 = call noundef zeroext i1 @_ZN4llvm11MCAsmParser8TokErrorERKNS_5TwineENS_7SMRangeE(ptr noundef nonnull align 8 dereferenceable(34) %55, ptr noundef nonnull align 8 dereferenceable(34) %6, ptr null, ptr null) #13
  br label %_ZN12_GLOBAL__N_113WasmAsmParser19ParseDirectiveIdentEN4llvm9StringRefENS1_5SMLocE.exit

57:                                               ; preds = %_ZNK4llvm8AsmToken13getIdentifierEv.exit.i
  %58 = load ptr, ptr %7, align 8
  %59 = load ptr, ptr %58, align 8
  %60 = getelementptr inbounds i8, ptr %59, i64 184
  %61 = load ptr, ptr %60, align 8
  %62 = tail call noundef nonnull align 8 dereferenceable(40) ptr %61(ptr noundef nonnull align 8 dereferenceable(34) %58) #13
  %63 = load ptr, ptr %7, align 8
  %64 = load ptr, ptr %63, align 8
  %65 = getelementptr inbounds i8, ptr %64, i64 56
  %66 = load ptr, ptr %65, align 8
  %67 = tail call noundef nonnull align 8 dereferenceable(288) ptr %66(ptr noundef nonnull align 8 dereferenceable(34) %63) #13
  %68 = load ptr, ptr %67, align 8
  %69 = getelementptr inbounds i8, ptr %68, i64 680
  %70 = load ptr, ptr %69, align 8
  tail call void %70(ptr noundef nonnull align 8 dereferenceable(288) %67, ptr %.sroa.0.0.copyload.i.pn.i.i, i64 %.sroa.2.0.copyload.i.pn.i.i) #13
  br label %_ZN12_GLOBAL__N_113WasmAsmParser19ParseDirectiveIdentEN4llvm9StringRefENS1_5SMLocE.exit

_ZN12_GLOBAL__N_113WasmAsmParser19ParseDirectiveIdentEN4llvm9StringRefENS1_5SMLocE.exit: ; preds = %16, %52, %57
  %.0.i = phi i1 [ %20, %16 ], [ %56, %52 ], [ false, %57 ]
  call void @llvm.lifetime.end.p0(i64 40, ptr nonnull %5)
  call void @llvm.lifetime.end.p0(i64 40, ptr nonnull %6)
  ret i1 %.0.i
}